; Function Attrs: mustprogress nounwind uwtable
define internal void @_ZN12_GLOBAL__N_122InlineCostCallAnalyzer19onCallArgumentSetupERKN4llvm8CallBaseE(ptr noundef nonnull align 8 captures(none) dereferenceable(768) %0, ptr noundef nonnull align 8 dereferenceable(88) %1) unnamed_addr #0 align 2 {
  %3 = tail call noundef ptr @_ZN4llvm8CallBase7arg_endEv(ptr noundef nonnull align 8 dereferenceable(88) %1)
  %4 = getelementptr inbounds nuw i8, ptr %1, i64 4
  %5 = load i32, ptr %4, align 4
  %6 = and i32 %5, 134217727
  %7 = zext nneg i32 %6 to i64
  %8 = sub nsw i64 0, %7
  %9 = getelementptr inbounds %"class.llvm::Use", ptr %1, i64 %8
  %10 = ptrtoint ptr %3 to i64
  %11 = ptrtoint ptr %9 to i64
  %12 = sub i64 %10, %11
  %13 = lshr exact i64 %12, 5
  %14 = trunc i64 %13 to i32
  %15 = load i32, ptr getelementptr inbounds nuw (i8, ptr @_ZL9InstrCost, i64 128), align 8
  %16 = mul i32 %15, %14
  %17 = tail call i32 @llvm.umin.i32(i32 %16, i32 2147483647)
  %18 = getelementptr inbounds nuw i8, ptr %0, i64 652
  %19 = load i32, ptr %18, align 4
  %20 = tail call i32 @llvm.sadd.sat.i32(i32 %17, i32 %19)
  store i32 %20, ptr %18, align 4
  ret void
}